target datalayout = "e-m:e-p270:32:32-p271:32:32-p272:64:64-i64:64-i128:128-f80:128-n8:16:32:64-S128"
target triple = "x86_64-pc-linux-gnu"

%struct.blf_params = type { ptr, ptr, ptr, i8, i8, ptr }
%struct.wtap_rec = type { i32, i32, i32, %struct.nstime_t, i32, %struct.nstime_t, i8, %union.anon, ptr, i8, %struct.Buffer, %struct.Buffer }
%struct.nstime_t = type { i64, i32 }
%union.anon = type { %struct.wtap_packet_header }
%struct.wtap_packet_header = type { i32, i32, i32, i32, %union.wtap_pseudo_header }
%union.wtap_pseudo_header = type { %struct.erf_mc_phdr }
%struct.erf_mc_phdr = type { %struct.erf_phdr, [16 x %struct.erf_ehdr], %union.anon.1 }
%struct.erf_phdr = type { i64, i8, i8, i16, i16, i16 }
%struct.erf_ehdr = type { i64 }
%union.anon.1 = type { i32 }
%struct.Buffer = type { ptr, i64, i64, i64 }
%struct.blf_canmessage = type { i16, i8, i8, i32 }
%struct.blf_canmessage2_trailer = type { i32, i8, i8, i16 }

@.str.56 = private unnamed_addr constant [51 x i8] c"blf: %s: not enough bytes for can header in object\00", align 1
@.str.57 = private unnamed_addr constant [13 x i8] c"CAN_MESSAGE2\00", align 1
@.str.58 = private unnamed_addr constant [12 x i8] c"CAN_MESSAGE\00", align 1
@.str.59 = private unnamed_addr constant [62 x i8] c"blf: CAN_MESSAGE2: not enough bytes for can message 2 trailer\00", align 1

; Function Attrs: null_pointer_is_valid sspstrong uwtable
define internal void @blf_add_direction_option(ptr noundef %0, i16 noundef zeroext %1) #2 {
  %3 = alloca ptr, align 8
  %4 = alloca i16, align 2
  %5 = alloca i32, align 4
  store ptr %0, ptr %3, align 8
  store i16 %1, ptr %4, align 2
  call void @llvm.lifetime.start.p0(i64 4, ptr %5) #13
  store i32 0, ptr %5, align 4
  %6 = load i16, ptr %4, align 2
  %7 = zext i16 %6 to i32
  switch i32 %7, label %10 [
    i32 0, label %8
    i32 1, label %9
    i32 2, label %9
  ]

8:                                                ; preds = %2
  store i32 1, ptr %5, align 4
  br label %10

9:                                                ; preds = %2, %2
  store i32 2, ptr %5, align 4
  br label %10

10:                                               ; preds = %2, %9, %8
  %11 = load ptr, ptr %3, align 8
  %12 = getelementptr inbounds nuw %struct.blf_params, ptr %11, i32 0, i32 1
  %13 = load ptr, ptr %12, align 8
  %14 = getelementptr inbounds nuw %struct.wtap_rec, ptr %13, i32 0, i32 8
  %15 = load ptr, ptr %14, align 8
  %16 = load i32, ptr %5, align 4
  %17 = call i32 @wtap_block_add_uint32_option(ptr noundef %15, i32 noundef 2, i32 noundef %16)
  call void @llvm.lifetime.end.p0(i64 4, ptr %5) #13
  ret void
}

; Function Attrs: nounwind null_pointer_is_valid sspstrong uwtable
define internal void @fix_endianness_blf_canmessage2_trailer(ptr noundef %0) #0 {
  %2 = alloca ptr, align 8
  store ptr %0, ptr %2, align 8
  %3 = load ptr, ptr %2, align 8
  %4 = getelementptr inbounds nuw %struct.blf_canmessage2_trailer, ptr %3, i32 0, i32 0
  %5 = load i32, ptr %4, align 4
  %6 = load ptr, ptr %2, align 8
  %7 = getelementptr inbounds nuw %struct.blf_canmessage2_trailer, ptr %6, i32 0, i32 0
  store i32 %5, ptr %7, align 4
  %8 = load ptr, ptr %2, align 8
  %9 = getelementptr inbounds nuw %struct.blf_canmessage2_trailer, ptr %8, i32 0, i32 2
  %10 = load i8, ptr %9, align 1
  %11 = zext i8 %10 to i16
  %12 = load ptr, ptr %2, align 8
  %13 = getelementptr inbounds nuw %struct.blf_canmessage2_trailer, ptr %12, i32 0, i32 3
  store i16 %11, ptr %13, align 2
  ret void
}

; Function Attrs: nounwind null_pointer_is_valid sspstrong uwtable
define internal void @fix_endianness_blf_canmessage(ptr noundef %0) #0 {
  %2 = alloca ptr, align 8
  store ptr %0, ptr %2, align 8
  %3 = load ptr, ptr %2, align 8
  %4 = getelementptr inbounds nuw %struct.blf_canmessage, ptr %3, i32 0, i32 0
  %5 = load i16, ptr %4, align 4
  %6 = load ptr, ptr %2, align 8
  %7 = getelementptr inbounds nuw %struct.blf_canmessage, ptr %6, i32 0, i32 0
  store i16 %5, ptr %7, align 4
  %8 = load ptr, ptr %2, align 8
  %9 = getelementptr inbounds nuw %struct.blf_canmessage, ptr %8, i32 0, i32 3
  %10 = load i32, ptr %9, align 4
  %11 = load ptr, ptr %2, align 8
  %12 = getelementptr inbounds nuw %struct.blf_canmessage, ptr %11, i32 0, i32 3
  store i32 %10, ptr %12, align 4
  ret void
}

; Function Attrs: null_pointer_is_valid sspstrong uwtable
define internal zeroext i1 @blf_read_bytes(ptr noundef %0, i64 noundef %1, ptr noundef %2, i64 noundef %3, ptr noundef %4, ptr noundef %5) #2 {
  %7 = alloca i1, align 1
  %8 = alloca ptr, align 8
  %9 = alloca i64, align 8
  %10 = alloca ptr, align 8
  %11 = alloca i64, align 8
  %12 = alloca ptr, align 8
  %13 = alloca ptr, align 8
  store ptr %0, ptr %8, align 8
  store i64 %1, ptr %9, align 8
  store ptr %2, ptr %10, align 8
  store i64 %3, ptr %11, align 8
  store ptr %4, ptr %12, align 8
  store ptr %5, ptr %13, align 8
  %14 = load ptr, ptr %8, align 8
  %15 = load i64, ptr %9, align 8
  %16 = load ptr, ptr %10, align 8
  %17 = load i64, ptr %11, align 8
  %18 = load ptr, ptr %12, align 8
  %19 = load ptr, ptr %13, align 8
  %20 = call zeroext i1 @blf_read_bytes_or_eof(ptr noundef %14, i64 noundef %15, ptr noundef %16, i64 noundef %17, ptr noundef %18, ptr noundef %19)
  br i1 %20, label %28, label %21

21:                                               ; preds = %6
  %22 = load ptr, ptr %12, align 8
  %23 = load i32, ptr %22, align 4
  %24 = icmp eq i32 %23, 0
  br i1 %24, label %25, label %27

25:                                               ; preds = %21
  %26 = load ptr, ptr %12, align 8
  store i32 -12, ptr %26, align 4
  br label %27

27:                                               ; preds = %25, %21
  store i1 false, ptr %7, align 1
  br label %29

28:                                               ; preds = %6
  store i1 true, ptr %7, align 1
  br label %29

29:                                               ; preds = %28, %27
  %30 = load i1, ptr %7, align 1
  ret i1 %30
}

; Function Attrs: null_pointer_is_valid sspstrong uwtable
define internal zeroext i1 @blf_read_canmessage(ptr noundef %0, ptr noundef %1, ptr noundef %2, i64 noundef %3, i64 noundef %4, i64 noundef %5, i32 noundef %6, i64 noundef %7, i1 noundef zeroext %8) #2 {
  %10 = alloca i1, align 1
  %11 = alloca ptr, align 8
  %12 = alloca ptr, align 8
  %13 = alloca ptr, align 8
  %14 = alloca i64, align 8
  %15 = alloca i64, align 8
  %16 = alloca i64, align 8
  %17 = alloca i32, align 4
  %18 = alloca i64, align 8
  %19 = alloca i8, align 1
  %20 = alloca %struct.blf_canmessage, align 4
  %21 = alloca %struct.blf_canmessage2_trailer, align 4
  %22 = alloca i32, align 4
  %23 = alloca i8, align 1
  %24 = alloca i32, align 4
  store ptr %0, ptr %11, align 8
  store ptr %1, ptr %12, align 8
  store ptr %2, ptr %13, align 8
  store i64 %3, ptr %14, align 8
  store i64 %4, ptr %15, align 8
  store i64 %5, ptr %16, align 8
  store i32 %6, ptr %17, align 4
  store i64 %7, ptr %18, align 8
  %25 = zext i1 %8 to i8
  store i8 %25, ptr %19, align 1
  call void @llvm.lifetime.start.p0(i64 8, ptr %20) #13
  call void @llvm.lifetime.start.p0(i64 8, ptr %21) #13
  call void @llvm.lifetime.start.p0(i64 4, ptr %22) #13
  call void @llvm.lifetime.start.p0(i64 1, ptr %23) #13
  %26 = load i64, ptr %16, align 8
  %27 = load i64, ptr %15, align 8
  %28 = load i64, ptr %14, align 8
  %29 = sub i64 %27, %28
  %30 = add i64 %29, 8
  %31 = icmp slt i64 %26, %30
  br i1 %31, label %32, label %42

32:                                               ; preds = %9
  %33 = load ptr, ptr %12, align 8
  store i32 -13, ptr %33, align 4
  %34 = load i8, ptr %19, align 1, !range !8, !noundef !9
  %35 = trunc i8 %34 to i1
  %36 = select i1 %35, ptr @.str.57, ptr @.str.58
  %37 = call noalias ptr (ptr, ptr, ...) @wmem_strdup_printf(ptr noundef null, ptr noundef @.str.56, ptr noundef %36)
  %38 = load ptr, ptr %13, align 8
  store ptr %37, ptr %38, align 8
  br label %39

39:                                               ; preds = %32
  br label %40

40:                                               ; preds = %39
  br label %41

41:                                               ; preds = %40
  store i1 false, ptr %10, align 1
  store i32 1, ptr %24, align 4
  br label %134

42:                                               ; preds = %9
  %43 = load ptr, ptr %11, align 8
  %44 = load i64, ptr %15, align 8
  %45 = load ptr, ptr %12, align 8
  %46 = load ptr, ptr %13, align 8
  %47 = call zeroext i1 @blf_read_bytes(ptr noundef %43, i64 noundef %44, ptr noundef %20, i64 noundef 8, ptr noundef %45, ptr noundef %46)
  br i1 %47, label %52, label %48

48:                                               ; preds = %42
  br label %49

49:                                               ; preds = %48
  br label %50

50:                                               ; preds = %49
  br label %51

51:                                               ; preds = %50
  store i1 false, ptr %10, align 1
  store i32 1, ptr %24, align 4
  br label %134

52:                                               ; preds = %42
  call void @fix_endianness_blf_canmessage(ptr noundef %20)
  %53 = getelementptr inbounds nuw %struct.blf_canmessage, ptr %20, i32 0, i32 2
  %54 = load i8, ptr %53, align 1
  %55 = zext i8 %54 to i32
  %56 = and i32 %55, 15
  %57 = trunc i32 %56 to i8
  store i8 %57, ptr %53, align 1
  %58 = getelementptr inbounds nuw %struct.blf_canmessage, ptr %20, i32 0, i32 2
  %59 = load i8, ptr %58, align 1
  store i8 %59, ptr %23, align 1
  %60 = load i8, ptr %23, align 1
  %61 = zext i8 %60 to i32
  %62 = icmp sgt i32 %61, 8
  br i1 %62, label %63, label %67

63:                                               ; preds = %52
  br label %64

64:                                               ; preds = %63
  br label %65

65:                                               ; preds = %64
  br label %66

66:                                               ; preds = %65
  store i8 8, ptr %23, align 1
  br label %67

67:                                               ; preds = %66, %52
  %68 = getelementptr inbounds nuw %struct.blf_canmessage, ptr %20, i32 0, i32 3
  %69 = load i32, ptr %68, align 4
  store i32 %69, ptr %22, align 4
  %70 = getelementptr inbounds nuw %struct.blf_canmessage, ptr %20, i32 0, i32 1
  %71 = load i8, ptr %70, align 2
  %72 = zext i8 %71 to i32
  %73 = and i32 %72, 128
  %74 = icmp eq i32 %73, 128
  br i1 %74, label %75, label %78

75:                                               ; preds = %67
  %76 = load i32, ptr %22, align 4
  %77 = or i32 %76, 1073741824
  store i32 %77, ptr %22, align 4
  store i8 0, ptr %23, align 1
  br label %78

78:                                               ; preds = %75, %67
  %79 = load ptr, ptr %11, align 8
  %80 = load ptr, ptr %12, align 8
  %81 = load ptr, ptr %13, align 8
  %82 = load i32, ptr %22, align 4
  %83 = load i8, ptr %23, align 1
  %84 = load i8, ptr %23, align 1
  %85 = load i64, ptr %15, align 8
  %86 = add i64 %85, 8
  %87 = load i32, ptr %17, align 4
  %88 = load i64, ptr %18, align 8
  %89 = getelementptr inbounds nuw %struct.blf_canmessage, ptr %20, i32 0, i32 0
  %90 = load i16, ptr %89, align 4
  %91 = call zeroext i1 @blf_can_fill_buf_and_rec(ptr noundef %79, ptr noundef %80, ptr noundef %81, i32 noundef %82, i8 noundef zeroext %83, i8 noundef zeroext %84, i64 noundef %86, i32 noundef %87, i64 noundef %88, i16 noundef zeroext %90, i8 noundef zeroext 0)
  br i1 %91, label %93, label %92

92:                                               ; preds = %78
  store i1 false, ptr %10, align 1
  store i32 1, ptr %24, align 4
  br label %134

93:                                               ; preds = %78
  %94 = load i8, ptr %19, align 1, !range !8, !noundef !9
  %95 = trunc i8 %94 to i1
  br i1 %95, label %96, label %125

96:                                               ; preds = %93
  %97 = load i64, ptr %16, align 8
  %98 = load i64, ptr %15, align 8
  %99 = load i64, ptr %14, align 8
  %100 = sub i64 %98, %99
  %101 = add i64 %100, 8
  %102 = add i64 %101, 8
  %103 = add i64 %102, 8
  %104 = icmp slt i64 %97, %103
  br i1 %104, label %105, label %112

105:                                              ; preds = %96
  %106 = load ptr, ptr %12, align 8
  store i32 -13, ptr %106, align 4
  %107 = call noalias ptr @wmem_strdup(ptr noundef null, ptr noundef @.str.59)
  %108 = load ptr, ptr %13, align 8
  store ptr %107, ptr %108, align 8
  br label %109

109:                                              ; preds = %105
  br label %110

110:                                              ; preds = %109
  br label %111

111:                                              ; preds = %110
  store i1 false, ptr %10, align 1
  store i32 1, ptr %24, align 4
  br label %134

112:                                              ; preds = %96
  %113 = load ptr, ptr %11, align 8
  %114 = load i64, ptr %15, align 8
  %115 = add i64 %114, 8
  %116 = add i64 %115, 8
  %117 = load ptr, ptr %12, align 8
  %118 = load ptr, ptr %13, align 8
  %119 = call zeroext i1 @blf_read_bytes(ptr noundef %113, i64 noundef %116, ptr noundef %21, i64 noundef 8, ptr noundef %117, ptr noundef %118)
  br i1 %119, label %124, label %120

120:                                              ; preds = %112
  br label %121

121:                                              ; preds = %120
  br label %122

122:                                              ; preds = %121
  br label %123

123:                                              ; preds = %122
  store i1 false, ptr %10, align 1
  store i32 1, ptr %24, align 4
  br label %134

124:                                              ; preds = %112
  call void @fix_endianness_blf_canmessage2_trailer(ptr noundef %21)
  br label %125

125:                                              ; preds = %124, %93
  %126 = load ptr, ptr %11, align 8
  %127 = getelementptr inbounds nuw %struct.blf_canmessage, ptr %20, i32 0, i32 1
  %128 = load i8, ptr %127, align 2
  %129 = zext i8 %128 to i32
  %130 = and i32 %129, 1
  %131 = icmp eq i32 %130, 1
  %132 = select i1 %131, i32 1, i32 0
  %133 = trunc i32 %132 to i16
  call void @blf_add_direction_option(ptr noundef %126, i16 noundef zeroext %133)
  store i1 true, ptr %10, align 1
  store i32 1, ptr %24, align 4
  br label %134

134:                                              ; preds = %125, %123, %111, %92, %51, %41
  call void @llvm.lifetime.end.p0(i64 1, ptr %23) #13
  call void @llvm.lifetime.end.p0(i64 4, ptr %22) #13
  call void @llvm.lifetime.end.p0(i64 8, ptr %21) #13
  call void @llvm.lifetime.end.p0(i64 8, ptr %20) #13
  %135 = load i1, ptr %10, align 1
  ret i1 %135
}