; Function Attrs: null_pointer_is_valid sspstrong uwtable
define internal fastcc noundef zeroext i1 @blf_read_canmessage(ptr noundef readonly captures(none) %0, ptr noundef %1, ptr noundef %2, i64 noundef %3, i64 noundef %4, i64 noundef range(i64 0, 4294967296) %5, i32 noundef %6, i64 noundef %7, i1 noundef zeroext %8) unnamed_addr #2 {
  %10 = alloca %struct.blf_canmessage, align 4
  %11 = alloca %struct.blf_canmessage2_trailer, align 4
  call void @llvm.lifetime.start.p0(i64 8, ptr nonnull %10) #14
  call void @llvm.lifetime.start.p0(i64 8, ptr nonnull %11) #14
  %12 = sub i64 %4, %3
  %13 = add i64 %12, 8
  %14 = icmp slt i64 %5, %13
  br i1 %14, label %15, label %18

15:                                               ; preds = %9
  store i32 -13, ptr %1, align 4
  %16 = select i1 %8, ptr @.str.57, ptr @.str.58
  %17 = tail call noalias ptr (ptr, ptr, ...) @wmem_strdup_printf(ptr noundef null, ptr noundef nonnull @.str.56, ptr noundef nonnull %16)
  store ptr %17, ptr %2, align 8
  br label %blf_read_bytes.exit.thread

18:                                               ; preds = %9
  %19 = call fastcc zeroext i1 @blf_read_bytes_or_eof(ptr noundef readonly %0, i64 noundef %4, ptr noundef nonnull %10, i64 noundef 8, ptr noundef %1, ptr noundef %2)
  br i1 %19, label %blf_read_bytes.exit, label %20

20:                                               ; preds = %18
  %21 = load i32, ptr %1, align 4
  %22 = icmp eq i32 %21, 0
  br i1 %22, label %23, label %blf_read_bytes.exit.thread

23:                                               ; preds = %20
  store i32 -12, ptr %1, align 4
  br label %blf_read_bytes.exit.thread

blf_read_bytes.exit:                              ; preds = %18
  %24 = getelementptr inbounds nuw i8, ptr %10, i64 3
  %25 = load i8, ptr %24, align 1
  %26 = and i8 %25, 15
  store i8 %26, ptr %24, align 1
  %spec.store.select = call i8 @llvm.umin.i8(i8 %26, i8 8)
  %27 = getelementptr inbounds nuw i8, ptr %10, i64 4
  %28 = load i32, ptr %27, align 4
  %29 = getelementptr inbounds nuw i8, ptr %10, i64 2
  %30 = load i8, ptr %29, align 2
  %.not = icmp sgt i8 %30, -1
  %31 = or i32 %28, 1073741824
  %spec.select = select i1 %.not, i32 %28, i32 %31
  %spec.select37 = select i1 %.not, i8 %spec.store.select, i8 0
  %32 = add i64 %4, 8
  %33 = load i16, ptr %10, align 4
  %34 = call fastcc zeroext i1 @blf_can_fill_buf_and_rec(ptr noundef %0, ptr noundef %1, ptr noundef %2, i32 noundef %spec.select, i8 noundef zeroext %spec.select37, i8 noundef zeroext %spec.select37, i64 noundef %32, i32 noundef %6, i64 noundef %7, i16 noundef zeroext %33, i8 noundef zeroext 0)
  br i1 %34, label %35, label %blf_read_bytes.exit.thread

35:                                               ; preds = %blf_read_bytes.exit
  br i1 %8, label %36, label %blf_add_direction_option.exit

36:                                               ; preds = %35
  %37 = add i64 %12, 24
  %38 = icmp slt i64 %5, %37
  br i1 %38, label %39, label %41

39:                                               ; preds = %36
  store i32 -13, ptr %1, align 4
  %40 = call noalias ptr @wmem_strdup(ptr noundef null, ptr noundef nonnull @.str.59)
  store ptr %40, ptr %2, align 8
  br label %blf_read_bytes.exit.thread

41:                                               ; preds = %36
  %42 = add i64 %4, 16
  %43 = call fastcc zeroext i1 @blf_read_bytes_or_eof(ptr noundef readonly %0, i64 noundef %42, ptr noundef nonnull %11, i64 noundef 8, ptr noundef %1, ptr noundef %2)
  br i1 %43, label %blf_read_bytes.exit38, label %44

44:                                               ; preds = %41
  %45 = load i32, ptr %1, align 4
  %46 = icmp eq i32 %45, 0
  br i1 %46, label %47, label %blf_read_bytes.exit.thread

47:                                               ; preds = %44
  store i32 -12, ptr %1, align 4
  br label %blf_read_bytes.exit.thread

blf_read_bytes.exit38:                            ; preds = %41
  %48 = getelementptr inbounds nuw i8, ptr %11, i64 5
  %49 = load i8, ptr %48, align 1
  %50 = zext i8 %49 to i16
  %51 = getelementptr inbounds nuw i8, ptr %11, i64 6
  store i16 %50, ptr %51, align 2
  br label %blf_add_direction_option.exit

blf_add_direction_option.exit:                    ; preds = %blf_read_bytes.exit38, %35
  %52 = load i8, ptr %29, align 2
  %53 = and i8 %52, 1
  %switch.not.not = icmp eq i8 %53, 0
  %. = select i1 %switch.not.not, i32 1, i32 2
  %54 = getelementptr inbounds nuw i8, ptr %0, i64 8
  %55 = load ptr, ptr %54, align 8
  %56 = getelementptr inbounds nuw i8, ptr %55, i64 232
  %57 = load ptr, ptr %56, align 8
  %58 = call i32 @wtap_block_add_uint32_option(ptr noundef %57, i32 noundef 2, i32 noundef %.)
  br label %blf_read_bytes.exit.thread

blf_read_bytes.exit.thread:                       ; preds = %47, %44, %23, %20, %blf_read_bytes.exit, %blf_add_direction_option.exit, %39, %15
  %.033 = phi i1 [ false, %15 ], [ false, %39 ], [ true, %blf_add_direction_option.exit ], [ false, %blf_read_bytes.exit ], [ false, %20 ], [ false, %23 ], [ false, %44 ], [ false, %47 ]
  call void @llvm.lifetime.end.p0(i64 8, ptr nonnull %11) #14
  call void @llvm.lifetime.end.p0(i64 8, ptr nonnull %10) #14
  ret i1 %.033
}